target datalayout = "e-m:e-p270:32:32-p271:32:32-p272:64:64-i64:64-i128:128-f80:128-n8:16:32:64-S128"
target triple = "x86_64-pc-linux-gnu"

%struct.Ifd_Man_t_ = type { ptr, i32, i32, ptr, ptr, ptr, ptr, ptr, ptr, ptr }
%struct.Ifd_Obj_t_ = type { i32, [3 x i32] }
%struct.Vec_Int_t_ = type { i32, i32, ptr }
%struct.Vec_Wrd_t_ = type { i32, i32, ptr }

@.str.4 = private unnamed_addr constant [2 x i8] c"0\00", align 1
@.str.5 = private unnamed_addr constant [2 x i8] c"1\00", align 1
@.str.7 = private unnamed_addr constant [7 x i8] c"    { \00", align 1
@.str.8 = private unnamed_addr constant [5 x i8] c"%d, \00", align 1
@.str.9 = private unnamed_addr constant [6 x i8] c"%2d, \00", align 1
@.str.10 = private unnamed_addr constant [11 x i8] c"ABC_CONST(\00", align 1
@stdout = external global ptr, align 8
@.str.11 = private unnamed_addr constant [5 x i8] c"), \22\00", align 1
@.str.12 = private unnamed_addr constant [16 x i8] c"\22 },   // %4d \0A\00", align 1

; Function Attrs: inlinehint nounwind uwtable
define internal ptr @Ifd_ManObj(ptr noundef %0, i32 noundef %1) #3 {
  %3 = alloca ptr, align 8
  %4 = alloca i32, align 4
  store ptr %0, ptr %3, align 8, !tbaa !3
  store i32 %1, ptr %4, align 4, !tbaa !24
  %5 = load ptr, ptr %3, align 8, !tbaa !3
  %6 = getelementptr inbounds nuw %struct.Ifd_Man_t_, ptr %5, i32 0, i32 0
  %7 = load ptr, ptr %6, align 8, !tbaa !16
  %8 = load i32, ptr %4, align 4, !tbaa !24
  %9 = sext i32 %8 to i64
  %10 = getelementptr inbounds %struct.Ifd_Obj_t_, ptr %7, i64 %9
  ret ptr %10
}

; Function Attrs: inlinehint nounwind uwtable
define internal i32 @Abc_Lit2Var(i32 noundef %0) #3 {
  %2 = alloca i32, align 4
  store i32 %0, ptr %2, align 4, !tbaa !24
  %3 = load i32, ptr %2, align 4, !tbaa !24
  %4 = ashr i32 %3, 1
  ret i32 %4
}

; Function Attrs: inlinehint nounwind uwtable
define internal ptr @Ifd_ManObjFromLit(ptr noundef %0, i32 noundef %1) #3 {
  %3 = alloca ptr, align 8
  %4 = alloca i32, align 4
  store ptr %0, ptr %3, align 8, !tbaa !3
  store i32 %1, ptr %4, align 4, !tbaa !24
  %5 = load ptr, ptr %3, align 8, !tbaa !3
  %6 = load i32, ptr %4, align 4, !tbaa !24
  %7 = call i32 @Abc_Lit2Var(i32 noundef %6)
  %8 = call ptr @Ifd_ManObj(ptr noundef %5, i32 noundef %7)
  ret ptr %8
}

; Function Attrs: nounwind uwtable
define void @Ifd_ObjPrint(ptr noundef %0, i32 noundef %1) #0 {
  %3 = alloca ptr, align 8
  %4 = alloca i32, align 4
  %5 = alloca i32, align 4
  %6 = alloca i32, align 4
  store ptr %0, ptr %3, align 8, !tbaa !3
  store i32 %1, ptr %4, align 4, !tbaa !24
  call void @llvm.lifetime.start.p0(i64 4, ptr %5) #12
  store i32 0, ptr %5, align 4, !tbaa !24
  %7 = load i32, ptr %4, align 4, !tbaa !24
  %8 = icmp eq i32 %7, 0
  br i1 %8, label %9, label %11

9:                                                ; preds = %2
  %10 = call i32 (ptr, ...) @printf(ptr noundef @.str.4)
  store i32 1, ptr %6, align 4
  br label %19

11:                                               ; preds = %2
  %12 = load i32, ptr %4, align 4, !tbaa !24
  %13 = icmp eq i32 %12, 1
  br i1 %13, label %14, label %16

14:                                               ; preds = %11
  %15 = call i32 (ptr, ...) @printf(ptr noundef @.str.5)
  store i32 1, ptr %6, align 4
  br label %19

16:                                               ; preds = %11
  %17 = load ptr, ptr %3, align 8, !tbaa !3
  %18 = load i32, ptr %4, align 4, !tbaa !24
  call void @Ifd_ObjPrint_rec(ptr noundef %17, i32 noundef %18, ptr noundef %5, i32 noundef 1)
  store i32 0, ptr %6, align 4
  br label %19

19:                                               ; preds = %16, %14, %9
  call void @llvm.lifetime.end.p0(i64 4, ptr %5) #12
  %20 = load i32, ptr %6, align 4
  switch i32 %20, label %22 [
    i32 0, label %21
    i32 1, label %21
  ]

21:                                               ; preds = %19, %19
  ret void

22:                                               ; preds = %19
  unreachable
}

; Function Attrs: inlinehint nounwind uwtable
define internal i32 @Vec_IntEntry(ptr noundef %0, i32 noundef %1) #3 {
  %3 = alloca ptr, align 8
  %4 = alloca i32, align 4
  store ptr %0, ptr %3, align 8, !tbaa !28
  store i32 %1, ptr %4, align 4, !tbaa !24
  %5 = load ptr, ptr %3, align 8, !tbaa !28
  %6 = getelementptr inbounds nuw %struct.Vec_Int_t_, ptr %5, i32 0, i32 2
  %7 = load ptr, ptr %6, align 8, !tbaa !33
  %8 = load i32, ptr %4, align 4, !tbaa !24
  %9 = sext i32 %8 to i64
  %10 = getelementptr inbounds i32, ptr %7, i64 %9
  %11 = load i32, ptr %10, align 4, !tbaa !24
  ret i32 %11
}

; Function Attrs: inlinehint nounwind uwtable
define internal i32 @Ifd_LitNumAnds(ptr noundef %0, i32 noundef %1) #3 {
  %3 = alloca ptr, align 8
  %4 = alloca i32, align 4
  store ptr %0, ptr %3, align 8, !tbaa !3
  store i32 %1, ptr %4, align 4, !tbaa !24
  %5 = load i32, ptr %4, align 4, !tbaa !24
  %6 = icmp sgt i32 %5, 0
  br i1 %6, label %7, label %14

7:                                                ; preds = %2
  %8 = load ptr, ptr %3, align 8, !tbaa !3
  %9 = load i32, ptr %4, align 4, !tbaa !24
  %10 = call ptr @Ifd_ManObjFromLit(ptr noundef %8, i32 noundef %9)
  %11 = load i32, ptr %10, align 4
  %12 = lshr i32 %11, 18
  %13 = and i32 %12, 63
  br label %15

14:                                               ; preds = %2
  br label %15

15:                                               ; preds = %14, %7
  %16 = phi i32 [ %13, %7 ], [ 0, %14 ]
  ret i32 %16
}

; Function Attrs: inlinehint nounwind uwtable
define internal i32 @Abc_Var2Lit(i32 noundef %0, i32 noundef %1) #3 {
  %3 = alloca i32, align 4
  %4 = alloca i32, align 4
  store i32 %0, ptr %3, align 4, !tbaa !24
  store i32 %1, ptr %4, align 4, !tbaa !24
  %5 = load i32, ptr %3, align 4, !tbaa !24
  %6 = load i32, ptr %3, align 4, !tbaa !24
  %7 = add nsw i32 %5, %6
  %8 = load i32, ptr %4, align 4, !tbaa !24
  %9 = add nsw i32 %7, %8
  ret i32 %9
}

; Function Attrs: inlinehint nounwind uwtable
define internal i64 @Vec_WrdEntry(ptr noundef %0, i32 noundef %1) #3 {
  %3 = alloca ptr, align 8
  %4 = alloca i32, align 4
  store ptr %0, ptr %3, align 8, !tbaa !40
  store i32 %1, ptr %4, align 4, !tbaa !24
  %5 = load ptr, ptr %3, align 8, !tbaa !40
  %6 = getelementptr inbounds nuw %struct.Vec_Wrd_t_, ptr %5, i32 0, i32 2
  %7 = load ptr, ptr %6, align 8, !tbaa !45
  %8 = load i32, ptr %4, align 4, !tbaa !24
  %9 = sext i32 %8 to i64
  %10 = getelementptr inbounds i64, ptr %7, i64 %9
  %11 = load i64, ptr %10, align 8, !tbaa !55
  ret i64 %11
}

; Function Attrs: nounwind uwtable
define void @Ifd_ManPrint(ptr noundef %0) #0 {
  %2 = alloca ptr, align 8
  %3 = alloca i32, align 4
  %4 = alloca i64, align 8
  store ptr %0, ptr %2, align 8, !tbaa !3
  call void @llvm.lifetime.start.p0(i64 4, ptr %3) #12
  store i32 0, ptr %3, align 4, !tbaa !24
  br label %5

5:                                                ; preds = %39, %1
  %6 = load i32, ptr %3, align 4, !tbaa !24
  %7 = load ptr, ptr %2, align 8, !tbaa !3
  %8 = getelementptr inbounds nuw %struct.Ifd_Man_t_, ptr %7, i32 0, i32 1
  %9 = load i32, ptr %8, align 8, !tbaa !15
  %10 = icmp slt i32 %6, %9
  br i1 %10, label %11, label %42

11:                                               ; preds = %5
  call void @llvm.lifetime.start.p0(i64 8, ptr %4) #12
  %12 = load ptr, ptr %2, align 8, !tbaa !3
  %13 = getelementptr inbounds nuw %struct.Ifd_Man_t_, ptr %12, i32 0, i32 7
  %14 = load ptr, ptr %13, align 8, !tbaa !22
  %15 = load i32, ptr %3, align 4, !tbaa !24
  %16 = call i64 @Vec_WrdEntry(ptr noundef %14, i32 noundef %15)
  store i64 %16, ptr %4, align 8, !tbaa !55
  %17 = call i32 (ptr, ...) @printf(ptr noundef @.str.7)
  %18 = call i32 @Extra_TruthSupportSize(ptr noundef %4, i32 noundef 6)
  %19 = call i32 (ptr, ...) @printf(ptr noundef @.str.8, i32 noundef %18)
  %20 = load ptr, ptr %2, align 8, !tbaa !3
  %21 = load i32, ptr %3, align 4, !tbaa !24
  %22 = call i32 @Abc_Var2Lit(i32 noundef %21, i32 noundef 0)
  %23 = call i32 @Ifd_LitNumAnds(ptr noundef %20, i32 noundef %22)
  %24 = call i32 (ptr, ...) @printf(ptr noundef @.str.9, i32 noundef %23)
  %25 = load ptr, ptr %2, align 8, !tbaa !3
  %26 = getelementptr inbounds nuw %struct.Ifd_Man_t_, ptr %25, i32 0, i32 8
  %27 = load ptr, ptr %26, align 8, !tbaa !23
  %28 = load i32, ptr %3, align 4, !tbaa !24
  %29 = call i32 @Vec_IntEntry(ptr noundef %27, i32 noundef %28)
  %30 = call i32 (ptr, ...) @printf(ptr noundef @.str.9, i32 noundef %29)
  %31 = call i32 (ptr, ...) @printf(ptr noundef @.str.10)
  %32 = load ptr, ptr @stdout, align 8, !tbaa !57
  call void @Extra_PrintHex(ptr noundef %32, ptr noundef %4, i32 noundef 6)
  %33 = call i32 (ptr, ...) @printf(ptr noundef @.str.11)
  %34 = load ptr, ptr %2, align 8, !tbaa !3
  %35 = load i32, ptr %3, align 4, !tbaa !24
  %36 = call i32 @Abc_Var2Lit(i32 noundef %35, i32 noundef 0)
  call void @Ifd_ObjPrint(ptr noundef %34, i32 noundef %36)
  %37 = load i32, ptr %3, align 4, !tbaa !24
  %38 = call i32 (ptr, ...) @printf(ptr noundef @.str.12, i32 noundef %37)
  call void @llvm.lifetime.end.p0(i64 8, ptr %4) #12
  br label %39

39:                                               ; preds = %11
  %40 = load i32, ptr %3, align 4, !tbaa !24
  %41 = add nsw i32 %40, 1
  store i32 %41, ptr %3, align 4, !tbaa !24
  br label %5, !llvm.loop !59

42:                                               ; preds = %5
  call void @llvm.lifetime.end.p0(i64 4, ptr %3) #12
  ret void
}