; Function Attrs: nounwind uwtable
define void @Ifd_ManPrint(ptr noundef %0) local_unnamed_addr #5 {
  %2 = alloca i32, align 4
  %3 = alloca i64, align 8
  %4 = getelementptr inbounds nuw i8, ptr %0, i64 8
  %5 = load i32, ptr %4, align 8, !tbaa !16
  %6 = icmp sgt i32 %5, 0
  br i1 %6, label %.lr.ph, label %._crit_edge

.lr.ph:                                           ; preds = %1
  %7 = getelementptr inbounds nuw i8, ptr %0, i64 48
  %8 = getelementptr inbounds nuw i8, ptr %0, i64 56
  br label %9

9:                                                ; preds = %.lr.ph, %Ifd_ObjPrint.exit
  %indvars.iv = phi i64 [ 0, %.lr.ph ], [ %indvars.iv.next, %Ifd_ObjPrint.exit ]
  call void @llvm.lifetime.start.p0(i64 8, ptr nonnull %3) #28
  %10 = load ptr, ptr %7, align 8, !tbaa !39
  %11 = getelementptr i8, ptr %10, i64 8
  %.val11 = load ptr, ptr %11, align 8, !tbaa !33
  %12 = getelementptr inbounds nuw i64, ptr %.val11, i64 %indvars.iv
  %13 = load i64, ptr %12, align 8, !tbaa !46
  store i64 %13, ptr %3, align 8, !tbaa !46
  %14 = call i32 (ptr, ...) @printf(ptr noundef nonnull dereferenceable(1) @.str.7)
  %15 = call i32 @Extra_TruthSupportSize(ptr noundef nonnull %3, i32 noundef 6) #28
  %16 = call i32 (ptr, ...) @printf(ptr noundef nonnull dereferenceable(1) @.str.8, i32 noundef %15)
  %.not = icmp eq i64 %indvars.iv, 0
  br i1 %.not, label %Ifd_LitNumAnds.exit, label %17

17:                                               ; preds = %9
  %.val.i = load ptr, ptr %0, align 8, !tbaa !17
  %18 = getelementptr inbounds nuw %struct.Ifd_Obj_t_, ptr %.val.i, i64 %indvars.iv
  %19 = load i32, ptr %18, align 4
  %20 = lshr i32 %19, 18
  %21 = and i32 %20, 63
  br label %Ifd_LitNumAnds.exit

Ifd_LitNumAnds.exit:                              ; preds = %9, %17
  %22 = phi i32 [ %21, %17 ], [ 0, %9 ]
  %23 = call i32 (ptr, ...) @printf(ptr noundef nonnull dereferenceable(1) @.str.9, i32 noundef %22)
  %24 = load ptr, ptr %8, align 8, !tbaa !40
  %25 = getelementptr i8, ptr %24, i64 8
  %.val = load ptr, ptr %25, align 8, !tbaa !22
  %26 = getelementptr inbounds nuw i32, ptr %.val, i64 %indvars.iv
  %27 = load i32, ptr %26, align 4, !tbaa !37
  %28 = call i32 (ptr, ...) @printf(ptr noundef nonnull dereferenceable(1) @.str.9, i32 noundef %27)
  %29 = call i32 (ptr, ...) @printf(ptr noundef nonnull dereferenceable(1) @.str.10)
  %30 = load ptr, ptr @stdout, align 8, !tbaa !48
  call void @Extra_PrintHex(ptr noundef %30, ptr noundef nonnull %3, i32 noundef 6) #28
  %31 = call i32 (ptr, ...) @printf(ptr noundef nonnull dereferenceable(1) @.str.11)
  call void @llvm.lifetime.start.p0(i64 4, ptr nonnull %2) #28
  store i32 0, ptr %2, align 4, !tbaa !37
  br i1 %.not, label %32, label %33

32:                                               ; preds = %Ifd_LitNumAnds.exit
  %putchar3.i = call i32 @putchar(i32 48)
  br label %Ifd_ObjPrint.exit

33:                                               ; preds = %Ifd_LitNumAnds.exit
  %indvars.iv.tr = trunc i64 %indvars.iv to i32
  %34 = shl i32 %indvars.iv.tr, 1
  call void @Ifd_ObjPrint_rec(ptr noundef nonnull %0, i32 noundef %34, ptr noundef nonnull %2, i32 noundef 1)
  br label %Ifd_ObjPrint.exit

Ifd_ObjPrint.exit:                                ; preds = %32, %33
  call void @llvm.lifetime.end.p0(i64 4, ptr nonnull %2) #28
  %35 = trunc nuw nsw i64 %indvars.iv to i32
  %36 = call i32 (ptr, ...) @printf(ptr noundef nonnull dereferenceable(1) @.str.12, i32 noundef %35)
  call void @llvm.lifetime.end.p0(i64 8, ptr nonnull %3) #28
  %indvars.iv.next = add nuw nsw i64 %indvars.iv, 1
  %37 = load i32, ptr %4, align 8, !tbaa !16
  %38 = sext i32 %37 to i64
  %39 = icmp slt i64 %indvars.iv.next, %38
  br i1 %39, label %9, label %._crit_edge, !llvm.loop !50

._crit_edge:                                      ; preds = %Ifd_ObjPrint.exit, %1
  ret void
}